target datalayout = "e-m:e-p270:32:32-p271:32:32-p272:64:64-i64:64-i128:128-f80:128-n8:16:32:64-S128"
target triple = "x86_64-pc-linux-gnu"

%struct.exec_wait_info = type { i32, i32, i32, i32 }

@.str.16 = private unnamed_addr constant [6 x i8] c"mgr.c\00", align 1
@.str.87 = private unnamed_addr constant [45 x i8] c"%s:%d: %s: safe_write (%zu of %d) failed: %m\00", align 1
@.str.88 = private unnamed_addr constant [48 x i8] c"%s:%d: %s: safe_write (%zu of %d) partial write\00", align 1
@__func__.exec_wait_signal_child = private unnamed_addr constant [23 x i8] c"exec_wait_signal_child\00", align 1
@.str.158 = private unnamed_addr constant [43 x i8] c"%s: write(fd:%d) to unblock task %d failed\00", align 1

; Function Attrs: nounwind uwtable
define internal i32 @exec_wait_signal_child(ptr noundef %0) #0 {
  %2 = alloca i32, align 4
  %3 = alloca ptr, align 8
  %4 = alloca i8, align 1
  %5 = alloca i64, align 8
  %6 = alloca ptr, align 8
  %7 = alloca i32, align 4
  %8 = alloca i32, align 4
  store ptr %0, ptr %3, align 8
  call void @llvm.lifetime.start.p0(i64 1, ptr %4) #12
  store i8 0, ptr %4, align 1
  br label %9

9:                                                ; preds = %1
  call void @llvm.lifetime.start.p0(i64 8, ptr %5) #12
  store i64 1, ptr %5, align 8
  call void @llvm.lifetime.start.p0(i64 8, ptr %6) #12
  store ptr %4, ptr %6, align 8
  call void @llvm.lifetime.start.p0(i64 4, ptr %7) #12
  br label %10

10:                                               ; preds = %68, %31, %9
  %11 = load i64, ptr %5, align 8
  %12 = icmp ugt i64 %11, 0
  br i1 %12, label %13, label %69

13:                                               ; preds = %10
  %14 = load ptr, ptr %3, align 8
  %15 = getelementptr inbounds nuw %struct.exec_wait_info, ptr %14, i32 0, i32 2
  %16 = load i32, ptr %15, align 4
  %17 = load ptr, ptr %6, align 8
  %18 = load i64, ptr %5, align 8
  %19 = call i64 @write(i32 noundef %16, ptr noundef %17, i64 noundef %18)
  %20 = trunc i64 %19 to i32
  store i32 %20, ptr %7, align 4
  %21 = load i32, ptr %7, align 4
  %22 = icmp slt i32 %21, 0
  br i1 %22, label %23, label %44

23:                                               ; preds = %13
  %24 = call ptr @__errno_location() #13
  %25 = load i32, ptr %24, align 4
  %26 = icmp eq i32 %25, 11
  br i1 %26, label %31, label %27

27:                                               ; preds = %23
  %28 = call ptr @__errno_location() #13
  %29 = load i32, ptr %28, align 4
  %30 = icmp eq i32 %29, 4
  br i1 %30, label %31, label %32

31:                                               ; preds = %27, %23
  br label %10, !llvm.loop !43

32:                                               ; preds = %27
  br label %33

33:                                               ; preds = %32
  br label %34

34:                                               ; preds = %33
  %35 = call i32 @get_log_level()
  %36 = icmp sge i32 %35, 5
  br i1 %36, label %37, label %39

37:                                               ; preds = %34
  %38 = load i64, ptr %5, align 8
  call void (i32, ptr, ...) @log_var(i32 noundef 5, ptr noundef @.str.87, ptr noundef @.str.16, i32 noundef 2055, ptr noundef @__func__.exec_wait_signal_child, i64 noundef %38, i32 noundef 1)
  br label %39

39:                                               ; preds = %37, %34
  br label %40

40:                                               ; preds = %39
  br label %41

41:                                               ; preds = %40
  br label %42

42:                                               ; preds = %41
  br label %43

43:                                               ; preds = %42
  store i32 10, ptr %8, align 4
  br label %70

44:                                               ; preds = %13
  %45 = load i32, ptr %7, align 4
  %46 = load ptr, ptr %6, align 8
  %47 = sext i32 %45 to i64
  %48 = getelementptr inbounds i8, ptr %46, i64 %47
  store ptr %48, ptr %6, align 8
  %49 = load i32, ptr %7, align 4
  %50 = sext i32 %49 to i64
  %51 = load i64, ptr %5, align 8
  %52 = sub i64 %51, %50
  store i64 %52, ptr %5, align 8
  %53 = load i64, ptr %5, align 8
  %54 = icmp ugt i64 %53, 0
  br i1 %54, label %55, label %67

55:                                               ; preds = %44
  br label %56

56:                                               ; preds = %55
  br label %57

57:                                               ; preds = %56
  %58 = call i32 @get_log_level()
  %59 = icmp sge i32 %58, 7
  br i1 %59, label %60, label %62

60:                                               ; preds = %57
  %61 = load i64, ptr %5, align 8
  call void (i32, ptr, ...) @log_var(i32 noundef 7, ptr noundef @.str.88, ptr noundef @.str.16, i32 noundef 2055, ptr noundef @__func__.exec_wait_signal_child, i64 noundef %61, i32 noundef 1)
  br label %62

62:                                               ; preds = %60, %57
  br label %63

63:                                               ; preds = %62
  br label %64

64:                                               ; preds = %63
  br label %65

65:                                               ; preds = %64
  br label %66

66:                                               ; preds = %65
  br label %67

67:                                               ; preds = %66, %44
  br label %68

68:                                               ; preds = %67
  br label %10, !llvm.loop !43

69:                                               ; preds = %10
  store i32 0, ptr %8, align 4
  br label %70

70:                                               ; preds = %43, %69
  call void @llvm.lifetime.end.p0(i64 4, ptr %7) #12
  call void @llvm.lifetime.end.p0(i64 8, ptr %6) #12
  call void @llvm.lifetime.end.p0(i64 8, ptr %5) #12
  %71 = load i32, ptr %8, align 4
  switch i32 %71, label %83 [
    i32 0, label %72
    i32 10, label %75
  ]

72:                                               ; preds = %70
  br label %73

73:                                               ; preds = %72
  br label %74

74:                                               ; preds = %73
  store i32 0, ptr %2, align 4
  store i32 1, ptr %8, align 4
  br label %83

75:                                               ; preds = %70
  %76 = load ptr, ptr %3, align 8
  %77 = getelementptr inbounds nuw %struct.exec_wait_info, ptr %76, i32 0, i32 2
  %78 = load i32, ptr %77, align 4
  %79 = load ptr, ptr %3, align 8
  %80 = getelementptr inbounds nuw %struct.exec_wait_info, ptr %79, i32 0, i32 0
  %81 = load i32, ptr %80, align 4
  %82 = call i32 (ptr, ...) @error(ptr noundef @.str.158, ptr noundef @__func__.exec_wait_signal_child, i32 noundef %78, i32 noundef %81)
  store i32 -1, ptr %2, align 4
  store i32 1, ptr %8, align 4
  br label %83

83:                                               ; preds = %75, %74, %70
  call void @llvm.lifetime.end.p0(i64 1, ptr %4) #12
  %84 = load i32, ptr %2, align 4
  ret i32 %84
}