; Function Attrs: nounwind uwtable
define internal fastcc range(i32 -1, 1) i32 @exec_wait_signal_child(ptr noundef readonly captures(none) %0) unnamed_addr #0 {
  %2 = alloca i8, align 1
  call void @llvm.lifetime.start.p0(i64 1, ptr nonnull %2) #17
  store i8 0, ptr %2, align 1
  %3 = getelementptr inbounds nuw i8, ptr %0, i64 8
  br label %.lr.ph.split

.lr.ph.split:                                     ; preds = %.lr.ph.split.backedge, %1
  %.016.ph37 = phi ptr [ %2, %1 ], [ %18, %.lr.ph.split.backedge ]
  %.017.ph35 = phi i64 [ 1, %1 ], [ %19, %.lr.ph.split.backedge ]
  %4 = load i32, ptr %3, align 4
  %5 = call i64 @write(i32 noundef %4, ptr noundef %.016.ph37, i64 noundef %.017.ph35) #17
  %6 = and i64 %5, 2147483648
  %.not2133 = icmp eq i64 %6, 0
  br i1 %.not2133, label %.split.us, label %.lr.ph34

.lr.ph34:                                         ; preds = %.lr.ph.split
  %7 = tail call ptr @__errno_location() #18
  br label %8

8:                                                ; preds = %.lr.ph34, %10
  %9 = load i32, ptr %7, align 4
  switch i32 %9, label %.split28.us [
    i32 11, label %10
    i32 4, label %10
  ]

10:                                               ; preds = %8, %8
  %11 = load i32, ptr %3, align 4
  %12 = call i64 @write(i32 noundef %11, ptr noundef %.016.ph37, i64 noundef %.017.ph35) #17
  %13 = and i64 %12, 2147483648
  %.not21 = icmp eq i64 %13, 0
  br i1 %.not21, label %.split.us, label %8

.split28.us:                                      ; preds = %8
  %14 = tail call i32 @get_log_level() #17
  %15 = icmp sgt i32 %14, 4
  br i1 %15, label %16, label %24

16:                                               ; preds = %.split28.us
  tail call void (i32, ptr, ...) @log_var(i32 noundef 5, ptr noundef nonnull @.str.87, ptr noundef nonnull @.str.16, i32 noundef 2055, ptr noundef nonnull @__func__.exec_wait_signal_child, i64 noundef %.017.ph35, i32 noundef 1) #17
  br label %24

.split.us:                                        ; preds = %10, %.lr.ph.split
  %.us-phi = phi i64 [ %5, %.lr.ph.split ], [ %12, %10 ]
  %17 = and i64 %.us-phi, 2147483647
  %18 = getelementptr inbounds nuw i8, ptr %.016.ph37, i64 %17
  %19 = sub i64 %.017.ph35, %17
  %.not22 = icmp eq i64 %19, 0
  br i1 %.not22, label %.loopexit, label %20

20:                                               ; preds = %.split.us
  %21 = tail call i32 @get_log_level() #17
  %22 = icmp sgt i32 %21, 6
  br i1 %22, label %23, label %.lr.ph.split.backedge

23:                                               ; preds = %20
  tail call void (i32, ptr, ...) @log_var(i32 noundef 7, ptr noundef nonnull @.str.88, ptr noundef nonnull @.str.16, i32 noundef 2055, ptr noundef nonnull @__func__.exec_wait_signal_child, i64 noundef %19, i32 noundef 1) #17
  br label %.lr.ph.split.backedge

.lr.ph.split.backedge:                            ; preds = %23, %20
  br label %.lr.ph.split, !llvm.loop !42

24:                                               ; preds = %16, %.split28.us
  %25 = load i32, ptr %3, align 4
  %26 = load i32, ptr %0, align 4
  %27 = tail call i32 (ptr, ...) @error(ptr noundef nonnull @.str.158, ptr noundef nonnull @__func__.exec_wait_signal_child, i32 noundef %25, i32 noundef %26) #17
  br label %.loopexit

.loopexit:                                        ; preds = %.split.us, %24
  %.015 = phi i32 [ -1, %24 ], [ 0, %.split.us ]
  call void @llvm.lifetime.end.p0(i64 1, ptr nonnull %2) #17
  ret i32 %.015
}